target datalayout = "e-m:e-p270:32:32-p271:32:32-p272:64:64-i64:64-i128:128-f80:128-n8:16:32:64-S128"
target triple = "x86_64-pc-linux-gnu"

%struct.cli_bc = type { %struct.bytecode_metadata, i32, i32, i32, i32, ptr, ptr, ptr, ptr, i64, i32, ptr, ptr, ptr, ptr, i32, i16, ptr, i32, i32, i32, i32, ptr, i32, i32, ptr }
%struct.bytecode_metadata = type { ptr, ptr, i64, i32, i32, i32, i32, i32 }

@.str.278 = private unnamed_addr constant [25 x i8] c"Invalid number type: %c\0A\00", align 1
@.str.279 = private unnamed_addr constant [46 x i8] c"End of line encountered while reading number\0A\00", align 1
@.str.280 = private unnamed_addr constant [25 x i8] c"Invalid number part: %c\0A\00", align 1
@.str.295 = private unnamed_addr constant [23 x i8] c"Invalid type id: %llu\0A\00", align 1

; Function Attrs: nounwind uwtable
define internal i64 @readNumber(ptr noundef %0, ptr noundef %1, i32 noundef %2, ptr noundef %3) #0 {
  %5 = alloca i64, align 8
  %6 = alloca ptr, align 8
  %7 = alloca ptr, align 8
  %8 = alloca i32, align 4
  %9 = alloca ptr, align 8
  %10 = alloca i64, align 8
  %11 = alloca i32, align 4
  %12 = alloca i32, align 4
  %13 = alloca i32, align 4
  %14 = alloca i32, align 4
  %15 = alloca i32, align 4
  %16 = alloca i64, align 8
  store ptr %0, ptr %6, align 8
  store ptr %1, ptr %7, align 8
  store i32 %2, ptr %8, align 4
  store ptr %3, ptr %9, align 8
  store i64 0, ptr %10, align 8
  %17 = load ptr, ptr %6, align 8
  %18 = load ptr, ptr %7, align 8
  %19 = load i32, ptr %18, align 4
  %20 = zext i32 %19 to i64
  %21 = getelementptr inbounds i8, ptr %17, i64 %20
  %22 = load i8, ptr %21, align 1
  %23 = zext i8 %22 to i32
  store i32 %23, ptr %14, align 4
  store i32 0, ptr %15, align 4
  %24 = load i32, ptr %14, align 4
  %25 = sub i32 %24, 96
  store i32 %25, ptr %13, align 4
  %26 = load i32, ptr %13, align 4
  %27 = icmp ugt i32 %26, 16
  br i1 %27, label %28, label %31

28:                                               ; preds = %4
  %29 = load i32, ptr %14, align 4
  call void (ptr, ...) @cli_errmsg(ptr noundef @.str.278, i32 noundef %29)
  %30 = load ptr, ptr %9, align 8
  store i8 0, ptr %30, align 1
  store i64 0, ptr %5, align 8
  br label %95

31:                                               ; preds = %4
  %32 = load ptr, ptr %7, align 8
  %33 = load i32, ptr %32, align 4
  %34 = load i32, ptr %13, align 4
  %35 = add i32 %33, %34
  %36 = add i32 %35, 1
  store i32 %36, ptr %12, align 4
  %37 = load i32, ptr %12, align 4
  %38 = load i32, ptr %8, align 4
  %39 = icmp ugt i32 %37, %38
  br i1 %39, label %40, label %42

40:                                               ; preds = %31
  call void (ptr, ...) @cli_errmsg(ptr noundef @.str.279)
  %41 = load ptr, ptr %9, align 8
  store i8 0, ptr %41, align 1
  store i64 0, ptr %5, align 8
  br label %95

42:                                               ; preds = %31
  %43 = load i32, ptr %14, align 4
  %44 = icmp eq i32 %43, 96
  br i1 %44, label %45, label %48

45:                                               ; preds = %42
  %46 = load i32, ptr %12, align 4
  %47 = load ptr, ptr %7, align 8
  store i32 %46, ptr %47, align 4
  store i64 0, ptr %5, align 8
  br label %95

48:                                               ; preds = %42
  %49 = load ptr, ptr %7, align 8
  %50 = load i32, ptr %49, align 4
  %51 = add i32 %50, 1
  store i32 %51, ptr %11, align 4
  br label %52

52:                                               ; preds = %88, %48
  %53 = load i32, ptr %11, align 4
  %54 = load i32, ptr %12, align 4
  %55 = icmp ult i32 %53, %54
  br i1 %55, label %56, label %91

56:                                               ; preds = %52
  %57 = load ptr, ptr %6, align 8
  %58 = load i32, ptr %11, align 4
  %59 = zext i32 %58 to i64
  %60 = getelementptr inbounds i8, ptr %57, i64 %59
  %61 = load i8, ptr %60, align 1
  %62 = zext i8 %61 to i64
  store i64 %62, ptr %16, align 8
  %63 = load i64, ptr %16, align 8
  %64 = and i64 %63, 240
  %65 = icmp ne i64 %64, 96
  %66 = xor i1 %65, true
  %67 = xor i1 %66, true
  %68 = zext i1 %67 to i32
  %69 = sext i32 %68 to i64
  %70 = icmp ne i64 %69, 0
  br i1 %70, label %71, label %76

71:                                               ; preds = %56
  %72 = load i64, ptr %16, align 8
  %73 = trunc i64 %72 to i8
  %74 = sext i8 %73 to i32
  call void (ptr, ...) @cli_errmsg(ptr noundef @.str.280, i32 noundef %74)
  %75 = load ptr, ptr %9, align 8
  store i8 0, ptr %75, align 1
  store i64 0, ptr %5, align 8
  br label %95

76:                                               ; preds = %56
  %77 = load i64, ptr %16, align 8
  %78 = and i64 %77, 15
  store i64 %78, ptr %16, align 8
  %79 = load i32, ptr %15, align 4
  %80 = load i64, ptr %16, align 8
  %81 = zext i32 %79 to i64
  %82 = shl i64 %80, %81
  store i64 %82, ptr %16, align 8
  %83 = load i64, ptr %16, align 8
  %84 = load i64, ptr %10, align 8
  %85 = or i64 %84, %83
  store i64 %85, ptr %10, align 8
  %86 = load i32, ptr %15, align 4
  %87 = add i32 %86, 4
  store i32 %87, ptr %15, align 4
  br label %88

88:                                               ; preds = %76
  %89 = load i32, ptr %11, align 4
  %90 = add i32 %89, 1
  store i32 %90, ptr %11, align 4
  br label %52

91:                                               ; preds = %52
  %92 = load i32, ptr %12, align 4
  %93 = load ptr, ptr %7, align 8
  store i32 %92, ptr %93, align 4
  %94 = load i64, ptr %10, align 8
  store i64 %94, ptr %5, align 8
  br label %95

95:                                               ; preds = %91, %71, %45, %40, %28
  %96 = load i64, ptr %5, align 8
  ret i64 %96
}

; Function Attrs: nounwind uwtable
define internal zeroext i16 @readTypeID(ptr noundef %0, ptr noundef %1, ptr noundef %2, i32 noundef %3, ptr noundef %4) #0 {
  %6 = alloca i16, align 2
  %7 = alloca ptr, align 8
  %8 = alloca ptr, align 8
  %9 = alloca ptr, align 8
  %10 = alloca i32, align 4
  %11 = alloca ptr, align 8
  %12 = alloca i64, align 8
  store ptr %0, ptr %7, align 8
  store ptr %1, ptr %8, align 8
  store ptr %2, ptr %9, align 8
  store i32 %3, ptr %10, align 4
  store ptr %4, ptr %11, align 8
  %13 = load ptr, ptr %8, align 8
  %14 = load ptr, ptr %9, align 8
  %15 = load i32, ptr %10, align 4
  %16 = load ptr, ptr %11, align 8
  %17 = call i64 @readNumber(ptr noundef %13, ptr noundef %14, i32 noundef %15, ptr noundef %16)
  store i64 %17, ptr %12, align 8
  %18 = load ptr, ptr %11, align 8
  %19 = icmp ne ptr %18, null
  br i1 %19, label %21, label %20

20:                                               ; preds = %5
  store i16 -1, ptr %6, align 2
  br label %39

21:                                               ; preds = %5
  %22 = load i64, ptr %12, align 8
  %23 = load ptr, ptr %7, align 8
  %24 = getelementptr inbounds %struct.cli_bc, ptr %23, i32 0, i32 3
  %25 = load i32, ptr %24, align 8
  %26 = load ptr, ptr %7, align 8
  %27 = getelementptr inbounds %struct.cli_bc, ptr %26, i32 0, i32 16
  %28 = load i16, ptr %27, align 4
  %29 = zext i16 %28 to i32
  %30 = add i32 %25, %29
  %31 = zext i32 %30 to i64
  %32 = icmp uge i64 %22, %31
  br i1 %32, label %33, label %36

33:                                               ; preds = %21
  %34 = load i64, ptr %12, align 8
  call void (ptr, ...) @cli_errmsg(ptr noundef @.str.295, i64 noundef %34)
  %35 = load ptr, ptr %11, align 8
  store i8 0, ptr %35, align 1
  store i16 -1, ptr %6, align 2
  br label %39

36:                                               ; preds = %21
  %37 = load i64, ptr %12, align 8
  %38 = trunc i64 %37 to i16
  store i16 %38, ptr %6, align 2
  br label %39

39:                                               ; preds = %36, %33, %20
  %40 = load i16, ptr %6, align 2
  ret i16 %40
}