; Function Attrs: nounwind uwtable
define internal fastcc zeroext i16 @readTypeID(ptr nocapture noundef readonly %0, ptr nocapture noundef readonly %1, ptr nocapture noundef %2, i32 noundef %3, ptr noundef writeonly %4) unnamed_addr #0 {
  %6 = load i32, ptr %2, align 4
  %7 = zext i32 %6 to i64
  %8 = getelementptr inbounds i8, ptr %1, i64 %7
  %9 = load i8, ptr %8, align 1
  %10 = zext i8 %9 to i32
  %11 = add nsw i32 %10, -96
  %12 = icmp ugt i32 %11, 16
  br i1 %12, label %13, label %14

13:                                               ; preds = %5
  tail call void (ptr, ...) @cli_errmsg(ptr noundef nonnull @.str.278, i32 noundef %10) #25
  br label %readNumber.exit.thread.sink.split

14:                                               ; preds = %5
  %15 = add i32 %6, 1
  %16 = add i32 %11, %15
  %17 = icmp ugt i32 %16, %3
  br i1 %17, label %18, label %19

18:                                               ; preds = %14
  tail call void (ptr, ...) @cli_errmsg(ptr noundef nonnull @.str.279) #25
  br label %readNumber.exit.thread.sink.split

19:                                               ; preds = %14
  %20 = icmp ne i8 %9, 96
  %21 = icmp ult i32 %15, %16
  %or.cond = and i1 %20, %21
  br i1 %or.cond, label %.lr.ph.i.preheader, label %readNumber.exit

.lr.ph.i.preheader:                               ; preds = %19
  %22 = zext i32 %15 to i64
  %23 = zext i32 %16 to i64
  br label %.lr.ph.i

.lr.ph.i:                                         ; preds = %.lr.ph.i.preheader, %30
  %indvars.iv = phi i64 [ %22, %.lr.ph.i.preheader ], [ %indvars.iv.next, %30 ]
  %.040.i = phi i32 [ 0, %.lr.ph.i.preheader ], [ %35, %30 ]
  %.03339.i = phi i64 [ 0, %.lr.ph.i.preheader ], [ %34, %30 ]
  %24 = getelementptr inbounds i8, ptr %1, i64 %indvars.iv
  %25 = load i8, ptr %24, align 1
  %26 = zext i8 %25 to i64
  %27 = and i64 %26, 240
  %.not.i = icmp eq i64 %27, 96
  br i1 %.not.i, label %30, label %28

28:                                               ; preds = %.lr.ph.i
  %29 = sext i8 %25 to i32
  tail call void (ptr, ...) @cli_errmsg(ptr noundef nonnull @.str.280, i32 noundef %29) #25
  br label %readNumber.exit.thread.sink.split

30:                                               ; preds = %.lr.ph.i
  %31 = and i64 %26, 15
  %32 = zext nneg i32 %.040.i to i64
  %33 = shl i64 %31, %32
  %34 = or i64 %33, %.03339.i
  %35 = add i32 %.040.i, 4
  %indvars.iv.next = add nuw nsw i64 %indvars.iv, 1
  %exitcond.not.i = icmp eq i64 %indvars.iv.next, %23
  br i1 %exitcond.not.i, label %readNumber.exit, label %.lr.ph.i

readNumber.exit:                                  ; preds = %30, %19
  %.032.i = phi i64 [ 0, %19 ], [ %34, %30 ]
  store i32 %16, ptr %2, align 4
  %.not = icmp eq ptr %4, null
  br i1 %.not, label %46, label %readNumber.exit.thread

readNumber.exit.thread.sink.split:                ; preds = %13, %18, %28
  store i8 0, ptr %4, align 1
  br label %readNumber.exit.thread

readNumber.exit.thread:                           ; preds = %readNumber.exit.thread.sink.split, %readNumber.exit
  %.032.i16 = phi i64 [ %.032.i, %readNumber.exit ], [ 0, %readNumber.exit.thread.sink.split ]
  %36 = getelementptr inbounds i8, ptr %0, i64 56
  %37 = load i32, ptr %36, align 8
  %38 = getelementptr inbounds i8, ptr %0, i64 148
  %39 = load i16, ptr %38, align 4
  %40 = zext i16 %39 to i32
  %41 = add i32 %37, %40
  %42 = zext i32 %41 to i64
  %.not13 = icmp ult i64 %.032.i16, %42
  br i1 %.not13, label %44, label %43

43:                                               ; preds = %readNumber.exit.thread
  tail call void (ptr, ...) @cli_errmsg(ptr noundef nonnull @.str.295, i64 noundef %.032.i16) #25
  store i8 0, ptr %4, align 1
  br label %46

44:                                               ; preds = %readNumber.exit.thread
  %45 = trunc i64 %.032.i16 to i16
  br label %46

46:                                               ; preds = %readNumber.exit, %44, %43
  %.0 = phi i16 [ -1, %43 ], [ %45, %44 ], [ -1, %readNumber.exit ]
  ret i16 %.0
}